target datalayout = "e-m:e-p270:32:32-p271:32:32-p272:64:64-i64:64-i128:128-f80:128-n8:16:32:64-S128"
target triple = "x86_64-pc-linux-gnu"

@.str.21 = private unnamed_addr constant [43 x i8] c"Abc_NtkDar: The network check has failed.\0A\00", align 1

; Function Attrs: nounwind uwtable
define ptr @Abc_NtkDar(ptr noundef %0) #0 {
  %2 = alloca ptr, align 8
  %3 = alloca ptr, align 8
  %4 = alloca ptr, align 8
  %5 = alloca ptr, align 8
  store ptr %0, ptr %3, align 8
  store ptr null, ptr %4, align 8
  %6 = load ptr, ptr %3, align 8
  %7 = call ptr @Abc_NtkToDar(ptr noundef %6, i32 noundef 0, i32 noundef 0)
  store ptr %7, ptr %5, align 8
  %8 = load ptr, ptr %5, align 8
  %9 = icmp eq ptr %8, null
  br i1 %9, label %10, label %11

10:                                               ; preds = %1
  store ptr null, ptr %2, align 8
  br label %26

11:                                               ; preds = %1
  %12 = load ptr, ptr %3, align 8
  %13 = load ptr, ptr %5, align 8
  %14 = call ptr @Abc_NtkFromDar(ptr noundef %12, ptr noundef %13)
  store ptr %14, ptr %4, align 8
  %15 = load ptr, ptr %5, align 8
  call void @Aig_ManStop(ptr noundef %15)
  %16 = load ptr, ptr %4, align 8
  %17 = icmp ne ptr %16, null
  br i1 %17, label %18, label %24

18:                                               ; preds = %11
  %19 = load ptr, ptr %4, align 8
  %20 = call i32 @Abc_NtkCheck(ptr noundef %19)
  %21 = icmp ne i32 %20, 0
  br i1 %21, label %24, label %22

22:                                               ; preds = %18
  call void (i32, ptr, ...) @Abc_Print(i32 noundef 1, ptr noundef @.str.21)
  %23 = load ptr, ptr %4, align 8
  call void @Abc_NtkDelete(ptr noundef %23)
  store ptr null, ptr %2, align 8
  br label %26

24:                                               ; preds = %18, %11
  %25 = load ptr, ptr %4, align 8
  store ptr %25, ptr %2, align 8
  br label %26

26:                                               ; preds = %24, %22, %10
  %27 = load ptr, ptr %2, align 8
  ret ptr %27
}