; Function Attrs: nounwind uwtable
define noundef ptr @Abc_NtkDar(ptr noundef %0) local_unnamed_addr #1 {
  %2 = tail call ptr @Abc_NtkToDar(ptr noundef %0, i32 noundef 0, i32 noundef 0)
  %3 = icmp eq ptr %2, null
  br i1 %3, label %9, label %4

4:                                                ; preds = %1
  %5 = tail call ptr @Abc_NtkFromDar(ptr noundef %0, ptr noundef nonnull %2)
  tail call void @Aig_ManStop(ptr noundef nonnull %2) #19
  %.not = icmp eq ptr %5, null
  br i1 %.not, label %9, label %6

6:                                                ; preds = %4
  %7 = tail call i32 @Abc_NtkCheck(ptr noundef nonnull %5) #19
  %.not12 = icmp eq i32 %7, 0
  br i1 %.not12, label %8, label %9

8:                                                ; preds = %6
  tail call void (i32, ptr, ...) @Abc_Print(i32 poison, ptr noundef nonnull @.str.21)
  tail call void @Abc_NtkDelete(ptr noundef nonnull %5) #19
  br label %9

9:                                                ; preds = %4, %6, %1, %8
  %.0 = phi ptr [ null, %8 ], [ null, %1 ], [ %5, %6 ], [ null, %4 ]
  ret ptr %.0
}